target datalayout = "e-m:e-p270:32:32-p271:32:32-p272:64:64-i64:64-i128:128-f80:128-n8:16:32:64-S128"
target triple = "x86_64-pc-linux-gnu"

%struct.ident_t = type { i32, i32, i32, i32, ptr }
%struct.Qureg = type { i32, i32, i32, i64, i64, i32, i32, %struct.ComplexArray, %struct.ComplexArray, %struct.ComplexArray, ptr, ptr, ptr, ptr, ptr, ptr }
%struct.ComplexArray = type { ptr, ptr }
%struct.ComplexMatrix2 = type { [2 x [2 x double]], [2 x [2 x double]] }

@3 = private unnamed_addr constant %struct.ident_t { i32 0, i32 2, i32 0, i32 22, ptr @0 }, align 8

; Function Attrs: nounwind uwtable
define void @statevec_multiControlledUnitaryLocal(ptr noundef byval(%struct.Qureg) align 8 %0, i32 noundef %1, i64 noundef %2, i64 noundef %3, ptr noundef byval(%struct.ComplexMatrix2) align 8 %4) #0 {
  %6 = alloca i32, align 4
  %7 = alloca i64, align 8
  %8 = alloca i64, align 8
  %9 = alloca i64, align 8
  %10 = alloca i64, align 8
  %11 = alloca i64, align 8
  %12 = alloca i64, align 8
  %13 = alloca i64, align 8
  %14 = alloca ptr, align 8
  %15 = alloca ptr, align 8
  store i32 %1, ptr %6, align 4, !tbaa !8
  store i64 %2, ptr %7, align 8, !tbaa !4
  store i64 %3, ptr %8, align 8, !tbaa !4
  call void @llvm.lifetime.start.p0(i64 8, ptr %9) #3
  call void @llvm.lifetime.start.p0(i64 8, ptr %10) #3
  call void @llvm.lifetime.start.p0(i64 8, ptr %11) #3
  %16 = getelementptr inbounds nuw %struct.Qureg, ptr %0, i32 0, i32 3
  %17 = load i64, ptr %16, align 8, !tbaa !12
  %18 = ashr i64 %17, 1
  store i64 %18, ptr %11, align 8, !tbaa !4
  call void @llvm.lifetime.start.p0(i64 8, ptr %12) #3
  %19 = getelementptr inbounds nuw %struct.Qureg, ptr %0, i32 0, i32 3
  %20 = load i64, ptr %19, align 8, !tbaa !12
  store i64 %20, ptr %12, align 8, !tbaa !4
  call void @llvm.lifetime.start.p0(i64 8, ptr %13) #3
  %21 = getelementptr inbounds nuw %struct.Qureg, ptr %0, i32 0, i32 5
  %22 = load i32, ptr %21, align 8, !tbaa !26
  %23 = sext i32 %22 to i64
  store i64 %23, ptr %13, align 8, !tbaa !4
  %24 = load i32, ptr %6, align 4, !tbaa !8
  %25 = zext i32 %24 to i64
  %26 = shl i64 1, %25
  store i64 %26, ptr %10, align 8, !tbaa !4
  %27 = load i64, ptr %10, align 8, !tbaa !4
  %28 = mul nsw i64 2, %27
  store i64 %28, ptr %9, align 8, !tbaa !4
  call void @llvm.lifetime.start.p0(i64 8, ptr %14) #3
  %29 = getelementptr inbounds nuw %struct.Qureg, ptr %0, i32 0, i32 7
  %30 = getelementptr inbounds nuw %struct.ComplexArray, ptr %29, i32 0, i32 0
  %31 = load ptr, ptr %30, align 8, !tbaa !27
  store ptr %31, ptr %14, align 8, !tbaa !25
  call void @llvm.lifetime.start.p0(i64 8, ptr %15) #3
  %32 = getelementptr inbounds nuw %struct.Qureg, ptr %0, i32 0, i32 7
  %33 = getelementptr inbounds nuw %struct.ComplexArray, ptr %32, i32 0, i32 1
  %34 = load ptr, ptr %33, align 8, !tbaa !28
  store ptr %34, ptr %15, align 8, !tbaa !25
  call void (ptr, i32, ptr, ...) @__kmpc_fork_call(ptr @3, i32 10, ptr @statevec_multiControlledUnitaryLocal.omp_outlined, ptr %11, ptr %10, ptr %9, ptr %7, ptr %13, ptr %12, ptr %8, ptr %14, ptr %15, ptr %4)
  call void @llvm.lifetime.end.p0(i64 8, ptr %15) #3
  call void @llvm.lifetime.end.p0(i64 8, ptr %14) #3
  call void @llvm.lifetime.end.p0(i64 8, ptr %13) #3
  call void @llvm.lifetime.end.p0(i64 8, ptr %12) #3
  call void @llvm.lifetime.end.p0(i64 8, ptr %11) #3
  call void @llvm.lifetime.end.p0(i64 8, ptr %10) #3
  call void @llvm.lifetime.end.p0(i64 8, ptr %9) #3
  ret void
}