; Function Attrs: nounwind uwtable
define void @statevec_multiControlledUnitaryLocal(ptr noundef readonly byval(%struct.Qureg) align 8 captures(none) %0, i32 noundef %1, i64 noundef %2, i64 noundef %3, ptr noundef byval(%struct.ComplexMatrix2) align 8 %4) local_unnamed_addr #1 {
  %6 = alloca i64, align 8
  %7 = alloca i64, align 8
  %8 = alloca i64, align 8
  %9 = alloca i64, align 8
  %10 = alloca i64, align 8
  %11 = alloca i64, align 8
  %12 = alloca i64, align 8
  %13 = alloca ptr, align 8
  %14 = alloca ptr, align 8
  store i64 %2, ptr %6, align 8, !tbaa !16
  store i64 %3, ptr %7, align 8, !tbaa !16
  call void @llvm.lifetime.start.p0(i64 8, ptr nonnull %8) #4
  call void @llvm.lifetime.start.p0(i64 8, ptr nonnull %9) #4
  call void @llvm.lifetime.start.p0(i64 8, ptr nonnull %10) #4
  %15 = getelementptr inbounds nuw i8, ptr %0, i64 16
  %16 = load i64, ptr %15, align 8, !tbaa !8
  %17 = ashr i64 %16, 1
  store i64 %17, ptr %10, align 8, !tbaa !16
  call void @llvm.lifetime.start.p0(i64 8, ptr nonnull %11) #4
  store i64 %16, ptr %11, align 8, !tbaa !16
  call void @llvm.lifetime.start.p0(i64 8, ptr nonnull %12) #4
  %18 = getelementptr inbounds nuw i8, ptr %0, i64 32
  %19 = load i32, ptr %18, align 8, !tbaa !19
  %20 = sext i32 %19 to i64
  store i64 %20, ptr %12, align 8, !tbaa !16
  %21 = zext nneg i32 %1 to i64
  %22 = shl nuw i64 1, %21
  store i64 %22, ptr %9, align 8, !tbaa !16
  %23 = shl i64 2, %21
  store i64 %23, ptr %8, align 8, !tbaa !16
  call void @llvm.lifetime.start.p0(i64 8, ptr nonnull %13) #4
  %24 = getelementptr inbounds nuw i8, ptr %0, i64 40
  %25 = load ptr, ptr %24, align 8, !tbaa !22
  store ptr %25, ptr %13, align 8, !tbaa !26
  call void @llvm.lifetime.start.p0(i64 8, ptr nonnull %14) #4
  %26 = getelementptr inbounds nuw i8, ptr %0, i64 48
  %27 = load ptr, ptr %26, align 8, !tbaa !24
  store ptr %27, ptr %14, align 8, !tbaa !26
  call void (ptr, i32, ptr, ...) @__kmpc_fork_call(ptr nonnull @3, i32 10, ptr nonnull @statevec_multiControlledUnitaryLocal.omp_outlined, ptr nonnull %10, ptr nonnull %9, ptr nonnull %8, ptr nonnull %6, ptr nonnull %12, ptr nonnull %11, ptr nonnull %7, ptr nonnull %13, ptr nonnull %14, ptr nonnull %4)
  call void @llvm.lifetime.end.p0(i64 8, ptr nonnull %14) #4
  call void @llvm.lifetime.end.p0(i64 8, ptr nonnull %13) #4
  call void @llvm.lifetime.end.p0(i64 8, ptr nonnull %12) #4
  call void @llvm.lifetime.end.p0(i64 8, ptr nonnull %11) #4
  call void @llvm.lifetime.end.p0(i64 8, ptr nonnull %10) #4
  call void @llvm.lifetime.end.p0(i64 8, ptr nonnull %9) #4
  call void @llvm.lifetime.end.p0(i64 8, ptr nonnull %8) #4
  ret void
}